EXPORTS
    Sock_ntop @1
    Sock_ntop_host @2
    _GCC_specific_handler @3
    _Unwind_Backtrace @4
    _Unwind_DeleteException @5
    _Unwind_FindEnclosingFunction @6
    _Unwind_ForcedUnwind @7
    _Unwind_GetCFA @8
    _Unwind_GetDataRelBase @9
    _Unwind_GetGR @10
    _Unwind_GetIP @11
    _Unwind_GetIPInfo @12
    _Unwind_GetLanguageSpecificData @13
    _Unwind_GetRegionStart @14
    _Unwind_GetTextRelBase @15
    _Unwind_RaiseException @16
    _Unwind_Resume @17
    _Unwind_Resume_or_Rethrow @18
    _Unwind_SetGR @19
    _Unwind_SetIP @20
    _Z14sock_ntop_hostPK8sockaddri @21
    _Z21Json2StunClientArgs_CRKNSt7__cxx1112basic_stringIcSt11char_traitsIcESaIcEEE @22
    _Z21StunClientArgs_C2JsonB5cxx11RK16StunClientArgs_C @23
    _Z24Json2StunClientResults_CRKNSt7__cxx1112basic_stringIcSt11char_traitsIcESaIcEEE @24
    _Z24StunClientResults_C2JsonB5cxx11RK19StunClientResults_C @25
    _Z6writeniPKvy @26
    _Z7sprintfPcPKcz @27
    _Z8readlineiRNSt7__cxx1112basic_stringIcSt11char_traitsIcESaIcEEERKS4_ @28
    _Z8snprintfPcyPKcz @29
    _Z9inet_ntopiPKvPcy @30
    _Z9inet_ptoniPKcPv @31
    _Z9sock_ntopPK8sockaddri @32
    _ZN9rapidjson12GenericValueINS_4UTF8IcEENS_19MemoryPoolAllocatorINS_12CrtAllocatorEEEEixIKcEENS_8internal9DisableIfINS9_15RemoveSfinaeTagIPFRNS9_9SfinaeTagENS9_7NotExprINS9_6IsSameINS9_11RemoveConstIT_E4TypeEcEEEEEE4TypeERS6_E4TypeEPSH_ @33
    _ZN9rapidjson13GenericReaderINS_4UTF8IcEES2_NS_12CrtAllocatorEE10ParseValueILj0ENS_19GenericStringStreamIS2_EENS_15GenericDocumentIS2_NS_19MemoryPoolAllocatorIS3_EES3_EEEEvRT0_RT1_ @34
    _ZN9rapidjson13GenericReaderINS_4UTF8IcEES2_NS_12CrtAllocatorEE11ParseNumberILj0ENS_19GenericStringStreamIS2_EENS_15GenericDocumentIS2_NS_19MemoryPoolAllocatorIS3_EES3_EEEEvRT0_RT1_ @35
    _ZN9rapidjson13GenericReaderINS_4UTF8IcEES2_NS_12CrtAllocatorEE11ParseStringILj0ENS_19GenericStringStreamIS2_EENS_15GenericDocumentIS2_NS_19MemoryPoolAllocatorIS3_EES3_EEEEvRT0_RT1_b @36
    _ZN9rapidjson15GenericDocumentINS_4UTF8IcEENS_19MemoryPoolAllocatorINS_12CrtAllocatorEEES4_ED1Ev @37
    _ZN9rapidjson16GenericStringRefIcE11emptyStringE @38 DATA
    _ZN9rapidjson19MemoryPoolAllocatorINS_12CrtAllocatorEE6MallocEy @39
    _ZN9rapidjson6WriterINS_19GenericStringBufferINS_4UTF8IcEENS_12CrtAllocatorEEES3_S3_S4_Lj0EE6PrefixENS_4TypeE @40
    _ZN9rapidjson8internal5StackINS_12CrtAllocatorEE11ShrinkToFitEv @41
    _ZN9rapidjson8internal5StackINS_12CrtAllocatorEE4PushIcEEPT_y @42
    _ZN9rapidjson8internal6u32toaEjPc @43
    _ZN9rapidjson8internal6u64toaEyPc @44
    _ZNK9rapidjson11ParseResult7IsErrorEv @45
    _ZNK9rapidjson12GenericValueINS_4UTF8IcEENS_19MemoryPoolAllocatorINS_12CrtAllocatorEEEE6AcceptINS_6WriterINS_19GenericStringBufferIS2_S4_EES2_S2_S4_Lj0EEEEEbRT_ @46
    _ZNKSt5ctypeIcE8do_widenEc @47
    _ZNSt15_Sp_counted_ptrIP19StunClientResults_CLN9__gnu_cxx12_Lock_policyE2EE10_M_destroyEv @48
    _ZNSt15_Sp_counted_ptrIP19StunClientResults_CLN9__gnu_cxx12_Lock_policyE2EE10_M_disposeEv @49
    _ZNSt15_Sp_counted_ptrIP19StunClientResults_CLN9__gnu_cxx12_Lock_policyE2EE14_M_get_deleterERKSt9type_info @50
    _ZNSt15_Sp_counted_ptrIP19StunClientResults_CLN9__gnu_cxx12_Lock_policyE2EED0Ev @51
    _ZNSt15_Sp_counted_ptrIP19StunClientResults_CLN9__gnu_cxx12_Lock_policyE2EED1Ev @52
    _ZNSt16_Sp_counted_baseILN9__gnu_cxx12_Lock_policyE2EE10_M_releaseEv @53
    _ZTISt11_Mutex_baseILN9__gnu_cxx12_Lock_policyE2EE @54 DATA
    _ZTISt15_Sp_counted_ptrIP19StunClientResults_CLN9__gnu_cxx12_Lock_policyE2EE @55 DATA
    _ZTISt16_Sp_counted_baseILN9__gnu_cxx12_Lock_policyE2EE @56 DATA
    _ZTSSt11_Mutex_baseILN9__gnu_cxx12_Lock_policyE2EE @57 DATA
    _ZTSSt15_Sp_counted_ptrIP19StunClientResults_CLN9__gnu_cxx12_Lock_policyE2EE @58 DATA
    _ZTSSt16_Sp_counted_baseILN9__gnu_cxx12_Lock_policyE2EE @59 DATA
    _ZTVSt15_Sp_counted_ptrIP19StunClientResults_CLN9__gnu_cxx12_Lock_policyE2EE @60 DATA
    _ZZN9rapidjson12GenericValueINS_4UTF8IcEENS_19MemoryPoolAllocatorINS_12CrtAllocatorEEEEixIS5_EERS6_RKNS0_IS2_T_EEE6buffer @61 DATA
    _ZZN9rapidjson13GenericReaderINS_4UTF8IcEES2_NS_12CrtAllocatorEE19ParseStringToStreamILj0ES2_S2_NS_19GenericStringStreamIS2_EENS4_11StackStreamIcEEEEvRT2_RT3_E6escape @62 DATA
    _ZZN9rapidjson6WriterINS_19GenericStringBufferINS_4UTF8IcEENS_12CrtAllocatorEEES3_S3_S4_Lj0EE11WriteStringEPKcjE6escape @63 DATA
    _ZZN9rapidjson6WriterINS_19GenericStringBufferINS_4UTF8IcEENS_12CrtAllocatorEEES3_S3_S4_Lj0EE11WriteStringEPKcjE9hexDigits @64 DATA
    _ZZN9rapidjson8internal12GetDigitsLutEvE10cDigitsLut @65 DATA
    _ZZN9rapidjson8internal21GetCachedPowerByIndexEyE15kCachedPowers_E @66 DATA
    _ZZN9rapidjson8internal21GetCachedPowerByIndexEyE15kCachedPowers_F @67 DATA
    _ZZN9rapidjson8internal5Pow10EiE1e @68 DATA
    _ZZN9rapidjson8internal8DigitGenERKNS0_5DiyFpES3_yPcPiS5_E6kPow10 @69 DATA
    _ZZSt9call_onceIPFvvEJEEvRSt9once_flagOT_DpOT0_ENKUlvE0_clEv @70
    _ZZSt9call_onceIPFvvEJEEvRSt9once_flagOT_DpOT0_ENUlvE0_4_FUNEv @71
    __emutls_get_address @72
    __emutls_register_common @73
    __pth_gpointer_locked @74
    __pthread_clock_nanosleep @75
    __pthread_shallcancel @76
    __xl_f @77 DATA
    _pthread_cleanup_dest @78
    _pthread_get_state @79
    _pthread_invoke_cancel @80
    _pthread_key_dest @81 DATA
    _pthread_rel_time_in_ms @82
    _pthread_set_state @83
    _pthread_setnobreak @84
    _pthread_time_in_ms @85
    _pthread_time_in_ms_from_timespec @86
    _pthread_tryjoin @87
    cond_print @88
    cond_print_set @89
    do_sema_b_wait_intern @90
    get_proxy_port @91
    pthread_attr_destroy @92
    pthread_attr_getdetachstate @93
    pthread_attr_getinheritsched @94
    pthread_attr_getscope @95
    pthread_attr_getstackaddr @96
    pthread_attr_getstacksize @97
    pthread_attr_init @98
    pthread_attr_setdetachstate @99
    pthread_attr_setinheritsched @100
    pthread_attr_setscope @101
    pthread_attr_setstackaddr @102
    pthread_attr_setstacksize @103
    pthread_cancel @104
    pthread_cond_broadcast @105
    pthread_cond_destroy @106
    pthread_cond_init @107
    pthread_cond_signal @108
    pthread_cond_timedwait @109
    pthread_cond_timedwait_relative_np @110
    pthread_cond_wait @111
    pthread_condattr_destroy @112
    pthread_condattr_getclock @113
    pthread_condattr_getpshared @114
    pthread_condattr_init @115
    pthread_condattr_setclock @116
    pthread_condattr_setpshared @117
    pthread_create @118
    pthread_create_wrapper @119
    pthread_delay_np @120
    pthread_delay_np_ms @121
    pthread_detach @122
    pthread_equal @123
    pthread_exit @124
    pthread_get_concurrency @125
    pthread_getclean @126
    pthread_getconcurrency @127
    pthread_getevent @128
    pthread_gethandle @129
    pthread_getname_np @130
    pthread_getspecific @131
    pthread_join @132
    pthread_key_create @133
    pthread_key_delete @134
    pthread_kill @135
    pthread_mutex_destroy @136
    pthread_mutex_init @137
    pthread_mutex_lock @138
    pthread_mutex_timedlock @139
    pthread_mutex_trylock @140
    pthread_mutex_unlock @141
    pthread_mutexattr_destroy @142
    pthread_mutexattr_getprioceiling @143
    pthread_mutexattr_getprotocol @144
    pthread_mutexattr_getpshared @145
    pthread_mutexattr_gettype @146
    pthread_mutexattr_init @147
    pthread_mutexattr_setprioceiling @148
    pthread_mutexattr_setprotocol @149
    pthread_mutexattr_setpshared @150
    pthread_mutexattr_settype @151
    pthread_num_processors_np @152
    pthread_once @153
    pthread_rwlock_destroy @154
    pthread_rwlock_init @155
    pthread_rwlock_rdlock @156
    pthread_rwlock_timedrdlock @157
    pthread_rwlock_timedwrlock @158
    pthread_rwlock_tryrdlock @159
    pthread_rwlock_trywrlock @160
    pthread_rwlock_unlock @161
    pthread_rwlock_wrlock @162
    pthread_rwlockattr_destroy @163
    pthread_rwlockattr_getpshared @164
    pthread_rwlockattr_init @165
    pthread_rwlockattr_setpshared @166
    pthread_self @167
    pthread_set_concurrency @168
    pthread_set_num_processors_np @169
    pthread_setcancelstate @170
    pthread_setcanceltype @171
    pthread_setconcurrency @172
    pthread_setname_np @173
    pthread_setspecific @174
    pthread_spin_destroy @175
    pthread_spin_init @176
    pthread_spin_lock @177
    pthread_spin_trylock @178
    pthread_spin_unlock @179
    pthread_testcancel @180
    pthread_timechange_handler_np @181
    pthread_tls_init @182
    rwl_print @183
    rwl_print_set @184
    set_proxy_port @185
    sock_get_port @186
    stun_client_args_c_init @187
    stun_client_udp_loop @188
    thread_print @189
    thread_print_set @190
